; Function Attrs: nounwind uwtable
define internal void @default_filename_completer(ptr noundef initializes((24, 32)) %0, ptr noundef %1) #0 {
  %3 = alloca %struct.filename_closure_s, align 8
  call void @llvm.lifetime.start.p0(i64 24, ptr nonnull %3) #32
  %4 = getelementptr inbounds nuw i8, ptr %3, i64 16
  store i8 47, ptr %4, align 8, !tbaa !94
  store ptr @.str.2, ptr %3, align 8, !tbaa !96
  %5 = getelementptr inbounds nuw i8, ptr %3, i64 8
  store ptr @.str.3, ptr %5, align 8, !tbaa !97
  %6 = getelementptr inbounds nuw i8, ptr %0, i64 24
  store ptr %3, ptr %6, align 8, !tbaa !98
  call void @ic_complete_qword_ex(ptr noundef %0, ptr noundef %1, ptr noundef nonnull @filename_completer, ptr noundef nonnull @ic_char_is_filename_letter, i8 noundef signext 92, ptr noundef nonnull @.str.1)
  call void @llvm.lifetime.end.p0(i64 24, ptr nonnull %3) #32
  ret void
}